target datalayout = "e-m:e-p270:32:32-p271:32:32-p272:64:64-i64:64-i128:128-f80:128-n8:16:32:64-S128"
target triple = "x86_64-pc-linux-gnu"

%struct._object = type { %union.anon, ptr }
%union.anon = type { i64 }
%struct.paramspecattrobject = type { %struct._object, ptr }

@_Py_NotImplementedStruct = external global %struct._object, align 8

; Function Attrs: inlinehint nounwind uwtable
define internal i32 @Py_IS_TYPE(ptr noundef %0, ptr noundef %1) #3 {
  %3 = alloca ptr, align 8
  %4 = alloca ptr, align 8
  store ptr %0, ptr %3, align 8, !tbaa !4
  store ptr %1, ptr %4, align 8, !tbaa !9
  %5 = load ptr, ptr %3, align 8, !tbaa !4
  %6 = call ptr @_Py_TYPE(ptr noundef %5)
  %7 = load ptr, ptr %4, align 8, !tbaa !9
  %8 = icmp eq ptr %6, %7
  %9 = zext i1 %8 to i32
  ret i32 %9
}

; Function Attrs: inlinehint nounwind uwtable
define internal ptr @_Py_TYPE(ptr noundef %0) #3 {
  %2 = alloca ptr, align 8
  store ptr %0, ptr %2, align 8, !tbaa !4
  %3 = load ptr, ptr %2, align 8, !tbaa !4
  %4 = getelementptr inbounds nuw %struct._object, ptr %3, i32 0, i32 1
  %5 = load ptr, ptr %4, align 8, !tbaa !26
  ret ptr %5
}

; Function Attrs: nounwind uwtable
define internal ptr @paramspecattr_richcompare(ptr noundef %0, ptr noundef %1, i32 noundef %2) #0 {
  %4 = alloca ptr, align 8
  %5 = alloca ptr, align 8
  %6 = alloca ptr, align 8
  %7 = alloca i32, align 4
  store ptr %0, ptr %5, align 8, !tbaa !4
  store ptr %1, ptr %6, align 8, !tbaa !4
  store i32 %2, ptr %7, align 4, !tbaa !13
  %8 = load ptr, ptr %5, align 8, !tbaa !4
  %9 = load ptr, ptr %6, align 8, !tbaa !4
  %10 = call ptr @_Py_TYPE(ptr noundef %9)
  %11 = call i32 @Py_IS_TYPE(ptr noundef %8, ptr noundef %10)
  %12 = icmp ne i32 %11, 0
  br i1 %12, label %14, label %13

13:                                               ; preds = %3
  store ptr @_Py_NotImplementedStruct, ptr %4, align 8
  br label %30

14:                                               ; preds = %3
  %15 = load i32, ptr %7, align 4, !tbaa !13
  %16 = icmp ne i32 %15, 2
  br i1 %16, label %17, label %21

17:                                               ; preds = %14
  %18 = load i32, ptr %7, align 4, !tbaa !13
  %19 = icmp ne i32 %18, 3
  br i1 %19, label %20, label %21

20:                                               ; preds = %17
  store ptr @_Py_NotImplementedStruct, ptr %4, align 8
  br label %30

21:                                               ; preds = %17, %14
  %22 = load ptr, ptr %5, align 8, !tbaa !4
  %23 = getelementptr inbounds nuw %struct.paramspecattrobject, ptr %22, i32 0, i32 1
  %24 = load ptr, ptr %23, align 8, !tbaa !160
  %25 = load ptr, ptr %6, align 8, !tbaa !4
  %26 = getelementptr inbounds nuw %struct.paramspecattrobject, ptr %25, i32 0, i32 1
  %27 = load ptr, ptr %26, align 8, !tbaa !160
  %28 = load i32, ptr %7, align 4, !tbaa !13
  %29 = call ptr @PyObject_RichCompare(ptr noundef %24, ptr noundef %27, i32 noundef %28)
  store ptr %29, ptr %4, align 8
  br label %30

30:                                               ; preds = %21, %20, %13
  %31 = load ptr, ptr %4, align 8
  ret ptr %31
}