; Function Attrs: nounwind uwtable
define internal ptr @paramspecattr_richcompare(ptr noundef readonly captures(none) %0, ptr noundef readonly captures(none) %1, i32 noundef %2) #0 {
  %4 = getelementptr i8, ptr %1, i64 8
  %.val = load ptr, ptr %4, align 8, !tbaa !18
  %5 = getelementptr i8, ptr %0, i64 8
  %.val9 = load ptr, ptr %5, align 8, !tbaa !18
  %6 = icmp ne ptr %.val9, %.val
  %7 = add i32 %2, -4
  %or.cond = icmp ult i32 %7, -2
  %or.cond8 = or i1 %or.cond, %6
  br i1 %or.cond8, label %14, label %8

8:                                                ; preds = %3
  %9 = getelementptr inbounds nuw i8, ptr %0, i64 16
  %10 = load ptr, ptr %9, align 8, !tbaa !151
  %11 = getelementptr inbounds nuw i8, ptr %1, i64 16
  %12 = load ptr, ptr %11, align 8, !tbaa !151
  %13 = tail call ptr @PyObject_RichCompare(ptr noundef %10, ptr noundef %12, i32 noundef %2) #8
  br label %14

14:                                               ; preds = %3, %8
  %.0 = phi ptr [ %13, %8 ], [ @_Py_NotImplementedStruct, %3 ]
  ret ptr %.0
}